; Function Attrs: nounwind uwtable
define internal void @opj_j2k_read_float32_to_int32(ptr noundef %0, ptr noundef writeonly captures(none) %1, i32 noundef %2) #3 {
  %4 = alloca float, align 4
  call void @llvm.lifetime.start.p0(i64 4, ptr nonnull %4) #21
  %.not = icmp eq i32 %2, 0
  br i1 %.not, label %._crit_edge, label %.lr.ph

.lr.ph:                                           ; preds = %3, %.lr.ph
  %.011 = phi i32 [ %9, %.lr.ph ], [ 0, %3 ]
  %.0710 = phi ptr [ %8, %.lr.ph ], [ %1, %3 ]
  %.089 = phi ptr [ %5, %.lr.ph ], [ %0, %3 ]
  call void @opj_read_float_LE(ptr noundef %.089, ptr noundef nonnull %4) #21
  %5 = getelementptr inbounds nuw i8, ptr %.089, i64 4
  %6 = load float, ptr %4, align 4, !tbaa !67
  %7 = fptosi float %6 to i32
  %8 = getelementptr inbounds nuw i8, ptr %.0710, i64 4
  store i32 %7, ptr %.0710, align 4, !tbaa !125
  %9 = add nuw i32 %.011, 1
  %exitcond.not = icmp eq i32 %9, %2
  br i1 %exitcond.not, label %._crit_edge, label %.lr.ph, !llvm.loop !446

._crit_edge:                                      ; preds = %.lr.ph, %3
  call void @llvm.lifetime.end.p0(i64 4, ptr nonnull %4) #21
  ret void
}